; Function Attrs: nounwind uwtable
define range(i32 -173, 1) i32 @wc_ecc_init_ex(ptr noundef %key, ptr noundef %heap, i32 noundef %devId) local_unnamed_addr #2 {
entry:
  %cmp = icmp eq ptr %key, null
  br i1 %cmp, label %return, label %if.end

if.end:                                           ; preds = %entry
  %k = getelementptr inbounds nuw i8, ptr %key, i64 3152
  %pubkey = getelementptr inbounds nuw i8, ptr %key, i64 32
  %y = getelementptr inbounds nuw i8, ptr %key, i64 1072
  %z = getelementptr inbounds nuw i8, ptr %key, i64 2112
  tail call void @llvm.memset.p0.i64(ptr noundef nonnull align 8 dereferenceable(4200) %key, i8 0, i64 4200, i1 false)
  %call = tail call i32 @sp_init_multi(ptr noundef nonnull %k, ptr noundef nonnull %pubkey, ptr noundef nonnull %y, ptr noundef nonnull %z, ptr noundef null, ptr noundef null) #19
  %cmp6.not = icmp eq i32 %call, 0
  br i1 %cmp6.not, label %if.end8, label %return

if.end8:                                          ; preds = %if.end
  %heap9 = getelementptr inbounds nuw i8, ptr %key, i64 24
  store ptr %heap, ptr %heap9, align 8
  br label %return

return:                                           ; preds = %if.end, %entry, %if.end8
  %retval.0 = phi i32 [ 0, %if.end8 ], [ -173, %entry ], [ -125, %if.end ]
  ret i32 %retval.0
}